target datalayout = "e-m:e-p270:32:32-p271:32:32-p272:64:64-i64:64-i128:128-f80:128-n8:16:32:64-S128"
target triple = "x86_64-unknown-linux-gnu"

%"class.base::SampleVectorIterator" = type { %"class.base::SampleCountIterator", ptr, i64, ptr, i64 }
%"class.base::SampleCountIterator" = type { ptr }

; Function Attrs: noreturn nounwind uwtable
define linkonce_odr hidden void @__clang_call_terminate(ptr noundef %0) #6 comdat {
  %2 = call ptr @__cxa_begin_catch(ptr %0) #8
  call void @_ZSt9terminatev() #9
  unreachable
}

; Function Attrs: mustprogress nounwind uwtable
define linkonce_odr dso_local noundef i32 @_ZStanSt12memory_orderSt23__memory_order_modifier(i32 noundef %__m, i32 noundef %__mod) #2 comdat {
entry:
  %__m.addr = alloca i32, align 4
  %__mod.addr = alloca i32, align 4
  store i32 %__m, ptr %__m.addr, align 4
  store i32 %__mod, ptr %__mod.addr, align 4
  %0 = load i32, ptr %__m.addr, align 4
  %1 = load i32, ptr %__mod.addr, align 4
  %and = and i32 %0, %1
  ret i32 %and
}

; Function Attrs: mustprogress nounwind uwtable
define linkonce_odr dso_local noundef i32 @_ZN4base6subtle14NoBarrier_LoadEPVKi(ptr noundef %ptr) #2 comdat personality ptr @__gxx_personality_v0 {
entry:
  %this.addr.i = alloca ptr, align 8
  %__m.addr.i = alloca i32, align 4
  %__b.i = alloca i32, align 4
  %atomic-temp.i = alloca i32, align 4
  %ptr.addr = alloca ptr, align 8
  store ptr %ptr, ptr %ptr.addr, align 8
  %0 = load ptr, ptr %ptr.addr, align 8
  store ptr %0, ptr %this.addr.i, align 8
  store i32 0, ptr %__m.addr.i, align 4
  %this1.i = load ptr, ptr %this.addr.i, align 8
  %1 = load i32, ptr %__m.addr.i, align 4
  %call.i = invoke noundef i32 @_ZStanSt12memory_orderSt23__memory_order_modifier(i32 noundef %1, i32 noundef 65535)
          to label %invoke.cont.i unwind label %terminate.lpad.i

invoke.cont.i:                                    ; preds = %entry
  store i32 %call.i, ptr %__b.i, align 4
  %2 = load i32, ptr %__m.addr.i, align 4
  switch i32 %2, label %monotonic.i [
    i32 1, label %acquire.i
    i32 2, label %acquire.i
    i32 5, label %seqcst.i
  ]

monotonic.i:                                      ; preds = %invoke.cont.i
  %3 = load atomic volatile i32, ptr %this1.i monotonic, align 4
  store i32 %3, ptr %atomic-temp.i, align 4
  br label %_ZNVKSt13__atomic_baseIiE4loadESt12memory_order.exit

acquire.i:                                        ; preds = %invoke.cont.i, %invoke.cont.i
  %4 = load atomic volatile i32, ptr %this1.i acquire, align 4
  store i32 %4, ptr %atomic-temp.i, align 4
  br label %_ZNVKSt13__atomic_baseIiE4loadESt12memory_order.exit

seqcst.i:                                         ; preds = %invoke.cont.i
  %5 = load atomic volatile i32, ptr %this1.i seq_cst, align 4
  store i32 %5, ptr %atomic-temp.i, align 4
  br label %_ZNVKSt13__atomic_baseIiE4loadESt12memory_order.exit

terminate.lpad.i:                                 ; preds = %entry
  %6 = landingpad { ptr, i32 }
          catch ptr null
  %7 = extractvalue { ptr, i32 } %6, 0
  call void @__clang_call_terminate(ptr %7) #9
  unreachable

_ZNVKSt13__atomic_baseIiE4loadESt12memory_order.exit: ; preds = %seqcst.i, %acquire.i, %monotonic.i
  %8 = load i32, ptr %atomic-temp.i, align 4
  ret i32 %8
}

; Function Attrs: mustprogress uwtable
define dso_local void @_ZN4base20SampleVectorIterator16SkipEmptyBucketsEv(ptr noundef nonnull align 8 dereferenceable(40) %this) #0 align 2 {
entry:
  %this.addr = alloca ptr, align 8
  store ptr %this, ptr %this.addr, align 8
  %this1 = load ptr, ptr %this.addr, align 8
  %vtable = load ptr, ptr %this1, align 8
  %vfn = getelementptr inbounds ptr, ptr %vtable, i64 2
  %0 = load ptr, ptr %vfn, align 8
  %call = call noundef zeroext i1 %0(ptr noundef nonnull align 8 dereferenceable(40) %this1)
  br i1 %call, label %if.then, label %if.end

if.then:                                          ; preds = %entry
  br label %while.end

if.end:                                           ; preds = %entry
  br label %while.cond

while.cond:                                       ; preds = %if.end6, %if.end
  %index_ = getelementptr inbounds %"class.base::SampleVectorIterator", ptr %this1, i32 0, i32 4
  %1 = load i64, ptr %index_, align 8
  %counts_size_ = getelementptr inbounds %"class.base::SampleVectorIterator", ptr %this1, i32 0, i32 2
  %2 = load i64, ptr %counts_size_, align 8
  %cmp = icmp ult i64 %1, %2
  br i1 %cmp, label %while.body, label %while.end

while.body:                                       ; preds = %while.cond
  %counts_ = getelementptr inbounds %"class.base::SampleVectorIterator", ptr %this1, i32 0, i32 1
  %3 = load ptr, ptr %counts_, align 8
  %index_2 = getelementptr inbounds %"class.base::SampleVectorIterator", ptr %this1, i32 0, i32 4
  %4 = load i64, ptr %index_2, align 8
  %arrayidx = getelementptr inbounds i32, ptr %3, i64 %4
  %call3 = call noundef i32 @_ZN4base6subtle14NoBarrier_LoadEPVKi(ptr noundef %arrayidx)
  %cmp4 = icmp ne i32 %call3, 0
  br i1 %cmp4, label %if.then5, label %if.end6

if.then5:                                         ; preds = %while.body
  br label %while.end

if.end6:                                          ; preds = %while.body
  %index_7 = getelementptr inbounds %"class.base::SampleVectorIterator", ptr %this1, i32 0, i32 4
  %5 = load i64, ptr %index_7, align 8
  %inc = add i64 %5, 1
  store i64 %inc, ptr %index_7, align 8
  br label %while.cond, !llvm.loop !9

while.end:                                        ; preds = %if.then5, %while.cond, %if.then
  ret void
}