; Function Attrs: mustprogress uwtable
define dso_local void @_ZN4base20SampleVectorIterator16SkipEmptyBucketsEv(ptr noundef nonnull align 8 dereferenceable(40) %this) local_unnamed_addr #0 align 2 personality ptr @__gxx_personality_v0 {
entry:
  %vtable = load ptr, ptr %this, align 8
  %vfn = getelementptr inbounds i8, ptr %vtable, i64 16
  %0 = load ptr, ptr %vfn, align 8
  %call = tail call noundef zeroext i1 %0(ptr noundef nonnull align 8 dereferenceable(40) %this)
  br i1 %call, label %while.end, label %while.cond.preheader

while.cond.preheader:                             ; preds = %entry
  %index_ = getelementptr inbounds i8, ptr %this, i64 32
  %counts_size_ = getelementptr inbounds i8, ptr %this, i64 16
  %1 = load i64, ptr %counts_size_, align 8
  %2 = load i64, ptr %index_, align 8
  %cmp1 = icmp ult i64 %2, %1
  br i1 %cmp1, label %while.body.lr.ph, label %while.end

while.body.lr.ph:                                 ; preds = %while.cond.preheader
  %counts_ = getelementptr inbounds i8, ptr %this, i64 8
  %3 = load ptr, ptr %counts_, align 8
  br label %while.body

while.body:                                       ; preds = %while.body.lr.ph, %if.end6
  %4 = phi i64 [ %2, %while.body.lr.ph ], [ %inc, %if.end6 ]
  %arrayidx = getelementptr inbounds i32, ptr %3, i64 %4
  %5 = load atomic volatile i32, ptr %arrayidx monotonic, align 4
  %cmp4.not = icmp eq i32 %5, 0
  br i1 %cmp4.not, label %if.end6, label %while.end

if.end6:                                          ; preds = %while.body
  %inc = add i64 %4, 1
  store i64 %inc, ptr %index_, align 8
  %exitcond.not = icmp eq i64 %inc, %1
  br i1 %exitcond.not, label %while.end, label %while.body, !llvm.loop !9

while.end:                                        ; preds = %if.end6, %while.body, %while.cond.preheader, %entry
  ret void
}